; Function Attrs: nounwind uwtable
define hidden zeroext range(i8 0, 2) i8 @getInet6Address_ipaddress(ptr noundef %0, ptr noundef %1, ptr noundef %2) local_unnamed_addr #1 {
  %4 = load ptr, ptr %0, align 8
  %5 = getelementptr inbounds i8, ptr %4, i64 760
  %6 = load ptr, ptr %5, align 8
  %7 = load ptr, ptr @ia6_holder6ID, align 8
  %8 = tail call ptr %6(ptr noundef nonnull %0, ptr noundef %1, ptr noundef %7) #7
  %9 = icmp eq ptr %8, null
  br i1 %9, label %27, label %10

10:                                               ; preds = %3
  %11 = load ptr, ptr %0, align 8
  %12 = getelementptr inbounds i8, ptr %11, i64 760
  %13 = load ptr, ptr %12, align 8
  %14 = load ptr, ptr @ia6_ipaddressID, align 8
  %15 = tail call ptr %13(ptr noundef nonnull %0, ptr noundef nonnull %8, ptr noundef %14) #7
  %16 = icmp eq ptr %15, null
  br i1 %16, label %27, label %17

17:                                               ; preds = %10
  %18 = load ptr, ptr %0, align 8
  %19 = getelementptr inbounds i8, ptr %18, i64 1600
  %20 = load ptr, ptr %19, align 8
  tail call void %20(ptr noundef nonnull %0, ptr noundef nonnull %15, i32 noundef 0, i32 noundef 16, ptr noundef %2) #7
  %21 = load ptr, ptr %0, align 8
  %22 = getelementptr inbounds i8, ptr %21, i64 184
  %23 = load ptr, ptr %22, align 8
  tail call void %23(ptr noundef nonnull %0, ptr noundef nonnull %15) #7
  %24 = load ptr, ptr %0, align 8
  %25 = getelementptr inbounds i8, ptr %24, i64 184
  %26 = load ptr, ptr %25, align 8
  tail call void %26(ptr noundef nonnull %0, ptr noundef nonnull %8) #7
  br label %27

27:                                               ; preds = %10, %3, %17
  %.0 = phi i8 [ 1, %17 ], [ 0, %3 ], [ 0, %10 ]
  ret i8 %.0
}